; Function Attrs: mustprogress uwtable
define void @_ZN3nix5Store16computeFSClosureERKNS_9StorePathERSt3setIS1_St4lessIS1_ESaIS1_EEbbb(ptr noundef nonnull align 8 dereferenceable(264) %0, ptr noundef nonnull align 8 dereferenceable(32) %1, ptr noundef nonnull align 8 dereferenceable(48) %2, i1 noundef zeroext %3, i1 noundef zeroext %4, i1 noundef zeroext %5) local_unnamed_addr #5 align 2 personality ptr @__gxx_personality_v0 {
  %7 = alloca %"struct.std::_Rb_tree<nix::StorePath, nix::StorePath, std::_Identity<nix::StorePath>, std::less<nix::StorePath>>::_Alloc_node", align 8
  %8 = alloca %"class.std::set", align 8
  %9 = getelementptr inbounds i8, ptr %8, i64 8
  store i32 0, ptr %9, align 8
  %10 = getelementptr inbounds i8, ptr %8, i64 16
  store ptr null, ptr %10, align 8
  %11 = getelementptr inbounds i8, ptr %8, i64 24
  store ptr %9, ptr %11, align 8
  %12 = getelementptr inbounds i8, ptr %8, i64 32
  store ptr %9, ptr %12, align 8
  %13 = getelementptr inbounds i8, ptr %8, i64 40
  store i64 0, ptr %13, align 8
  call void @llvm.lifetime.start.p0(i64 8, ptr nonnull %7)
  %14 = invoke { ptr, ptr } @_ZNSt8_Rb_treeIN3nix9StorePathES1_St9_IdentityIS1_ESt4lessIS1_ESaIS1_EE24_M_get_insert_unique_posERKS1_(ptr noundef nonnull align 8 dereferenceable(48) %8, ptr noundef nonnull align 8 dereferenceable(32) %1)
          to label %.noexc unwind label %28

.noexc:                                           ; preds = %6
  %15 = extractvalue { ptr, ptr } %14, 1
  %.not.i.i = icmp eq ptr %15, null
  br i1 %.not.i.i, label %19, label %16

16:                                               ; preds = %.noexc
  %17 = extractvalue { ptr, ptr } %14, 0
  store ptr %8, ptr %7, align 8
  %18 = invoke ptr @_ZNSt8_Rb_treeIN3nix9StorePathES1_St9_IdentityIS1_ESt4lessIS1_ESaIS1_EE10_M_insert_IRKS1_NS7_11_Alloc_nodeEEESt17_Rb_tree_iteratorIS1_EPSt18_Rb_tree_node_baseSF_OT_RT0_(ptr noundef nonnull align 8 dereferenceable(48) %8, ptr noundef %17, ptr noundef nonnull %15, ptr noundef nonnull align 8 dereferenceable(32) %1, ptr noundef nonnull align 8 dereferenceable(8) %7)
          to label %19 unwind label %28

19:                                               ; preds = %.noexc, %16
  call void @llvm.lifetime.end.p0(i64 8, ptr nonnull %7)
  %20 = load ptr, ptr %0, align 8
  %21 = getelementptr inbounds i8, ptr %20, i64 296
  %22 = load ptr, ptr %21, align 8
  invoke void %22(ptr noundef nonnull align 8 dereferenceable(264) %0, ptr noundef nonnull align 8 dereferenceable(48) %8, ptr noundef nonnull align 8 dereferenceable(48) %2, i1 noundef zeroext %3, i1 noundef zeroext %4, i1 noundef zeroext %5)
          to label %23 unwind label %28

23:                                               ; preds = %19
  %24 = load ptr, ptr %10, align 8
  invoke void @_ZNSt8_Rb_treeIN3nix9StorePathES1_St9_IdentityIS1_ESt4lessIS1_ESaIS1_EE8_M_eraseEPSt13_Rb_tree_nodeIS1_E(ptr noundef nonnull align 8 dereferenceable(48) %8, ptr noundef %24)
          to label %_ZNSt3setIN3nix9StorePathESt4lessIS1_ESaIS1_EED2Ev.exit unwind label %25

25:                                               ; preds = %23
  %26 = landingpad { ptr, i32 }
          catch ptr null
  %27 = extractvalue { ptr, i32 } %26, 0
  call void @__clang_call_terminate(ptr %27) #33
  unreachable

_ZNSt3setIN3nix9StorePathESt4lessIS1_ESaIS1_EED2Ev.exit: ; preds = %23
  ret void

28:                                               ; preds = %16, %6, %19
  %29 = landingpad { ptr, i32 }
          cleanup
  call void @_ZNSt3setIN3nix9StorePathESt4lessIS1_ESaIS1_EED2Ev(ptr noundef nonnull align 8 dereferenceable(48) %8) #29
  resume { ptr, i32 } %29
}